; Function Attrs: nounwind uwtable
define hidden range(i32 -1, 1) i32 @pysqlite_blob_setup_types(ptr noundef %0) local_unnamed_addr #0 {
  %2 = tail call ptr @PyType_FromModuleAndSpec(ptr noundef %0, ptr noundef nonnull @blob_spec, ptr noundef null) #5
  %3 = icmp eq ptr %2, null
  br i1 %3, label %7, label %4

4:                                                ; preds = %1
  %5 = tail call ptr @PyModule_GetState(ptr noundef %0) #5
  %6 = getelementptr inbounds nuw i8, ptr %5, i64 112
  store ptr %2, ptr %6, align 8, !tbaa !28
  br label %7

7:                                                ; preds = %1, %4
  %.0 = phi i32 [ 0, %4 ], [ -1, %1 ]
  ret i32 %.0
}